target datalayout = "e-m:e-p270:32:32-p271:32:32-p272:64:64-i64:64-i128:128-f80:128-n8:16:32:64-S128"
target triple = "x86_64-pc-linux-gnu"

%struct.rlimit = type { i64, i64 }

@PyExc_RuntimeError = external global ptr, align 8
@.str.70 = private unnamed_addr constant [89 x i8] c"unable to raise a stack overflow (allocated %zu bytes on the stack, %zu recursive calls)\00", align 1

; Function Attrs: nounwind uwtable
define internal void @faulthandler_suppress_crash_report() #0 {
  %1 = alloca %struct.rlimit, align 8
  call void @llvm.lifetime.start.p0(i64 16, ptr %1) #14
  %2 = call i32 @getrlimit64(i32 noundef 4, ptr noundef %1) #14
  %3 = icmp eq i32 %2, 0
  br i1 %3, label %4, label %7

4:                                                ; preds = %0
  %5 = getelementptr inbounds nuw %struct.rlimit, ptr %1, i32 0, i32 0
  store i64 0, ptr %5, align 8, !tbaa !243
  %6 = call i32 @setrlimit64(i32 noundef 4, ptr noundef %1) #14
  br label %7

7:                                                ; preds = %4, %0
  call void @llvm.lifetime.end.p0(i64 16, ptr %1) #14
  ret void
}

; Function Attrs: nounwind uwtable
define internal ptr @faulthandler_stack_overflow(ptr noundef %0, ptr noundef %1) #0 {
  %3 = alloca ptr, align 8
  %4 = alloca ptr, align 8
  %5 = alloca i64, align 8
  %6 = alloca i64, align 8
  %7 = alloca i64, align 8
  %8 = alloca i64, align 8
  %9 = alloca i64, align 8
  %10 = alloca i64, align 8
  store ptr %0, ptr %3, align 8, !tbaa !183
  store ptr %1, ptr %4, align 8, !tbaa !183
  call void @llvm.lifetime.start.p0(i64 8, ptr %5) #14
  call void @llvm.lifetime.start.p0(i64 8, ptr %6) #14
  call void @llvm.lifetime.start.p0(i64 8, ptr %7) #14
  %11 = ptrtoint ptr %5 to i64
  store i64 %11, ptr %7, align 8, !tbaa !177
  call void @llvm.lifetime.start.p0(i64 8, ptr %8) #14
  call void @llvm.lifetime.start.p0(i64 8, ptr %9) #14
  call void @llvm.lifetime.start.p0(i64 8, ptr %10) #14
  call void @faulthandler_suppress_crash_report()
  store i64 0, ptr %5, align 8, !tbaa !177
  %12 = load i64, ptr %7, align 8, !tbaa !177
  %13 = icmp ule i64 104857600, %12
  br i1 %13, label %14, label %17

14:                                               ; preds = %2
  %15 = load i64, ptr %7, align 8, !tbaa !177
  %16 = sub i64 %15, 104857600
  store i64 %16, ptr %9, align 8, !tbaa !177
  br label %18

17:                                               ; preds = %2
  store i64 0, ptr %9, align 8, !tbaa !177
  br label %18

18:                                               ; preds = %17, %14
  %19 = load i64, ptr %7, align 8, !tbaa !177
  %20 = icmp uge i64 -104857601, %19
  br i1 %20, label %21, label %24

21:                                               ; preds = %18
  %22 = load i64, ptr %7, align 8, !tbaa !177
  %23 = add i64 %22, 104857600
  store i64 %23, ptr %10, align 8, !tbaa !177
  br label %25

24:                                               ; preds = %18
  store i64 -1, ptr %10, align 8, !tbaa !177
  br label %25

25:                                               ; preds = %24, %21
  %26 = load i64, ptr %9, align 8, !tbaa !177
  %27 = load i64, ptr %10, align 8, !tbaa !177
  %28 = call i64 @stack_overflow(i64 noundef %26, i64 noundef %27, ptr noundef %5)
  store i64 %28, ptr %8, align 8, !tbaa !177
  %29 = load i64, ptr %7, align 8, !tbaa !177
  %30 = load i64, ptr %8, align 8, !tbaa !177
  %31 = icmp ult i64 %29, %30
  br i1 %31, label %32, label %36

32:                                               ; preds = %25
  %33 = load i64, ptr %8, align 8, !tbaa !177
  %34 = load i64, ptr %7, align 8, !tbaa !177
  %35 = sub i64 %33, %34
  store i64 %35, ptr %6, align 8, !tbaa !177
  br label %40

36:                                               ; preds = %25
  %37 = load i64, ptr %7, align 8, !tbaa !177
  %38 = load i64, ptr %8, align 8, !tbaa !177
  %39 = sub i64 %37, %38
  store i64 %39, ptr %6, align 8, !tbaa !177
  br label %40

40:                                               ; preds = %36, %32
  %41 = load ptr, ptr @PyExc_RuntimeError, align 8, !tbaa !183
  %42 = load i64, ptr %6, align 8, !tbaa !177
  %43 = load i64, ptr %5, align 8, !tbaa !177
  %44 = call ptr (ptr, ptr, ...) @PyErr_Format(ptr noundef %41, ptr noundef @.str.70, i64 noundef %42, i64 noundef %43)
  call void @llvm.lifetime.end.p0(i64 8, ptr %10) #14
  call void @llvm.lifetime.end.p0(i64 8, ptr %9) #14
  call void @llvm.lifetime.end.p0(i64 8, ptr %8) #14
  call void @llvm.lifetime.end.p0(i64 8, ptr %7) #14
  call void @llvm.lifetime.end.p0(i64 8, ptr %6) #14
  call void @llvm.lifetime.end.p0(i64 8, ptr %5) #14
  ret ptr null
}