; Function Attrs: nounwind uwtable
define internal noalias noundef ptr @faulthandler_stack_overflow(ptr readnone captures(none) %0, ptr readnone captures(none) %1) #0 {
  %3 = alloca %struct.rlimit, align 8
  %4 = alloca i64, align 8
  call void @llvm.lifetime.start.p0(i64 8, ptr nonnull %4) #16
  call void @llvm.lifetime.start.p0(i64 16, ptr nonnull %3) #16
  %5 = call i32 @getrlimit64(i32 noundef 4, ptr noundef nonnull %3) #16
  %6 = icmp eq i32 %5, 0
  br i1 %6, label %7, label %faulthandler_suppress_crash_report.exit

7:                                                ; preds = %2
  store i64 0, ptr %3, align 8, !tbaa !224
  %8 = call i32 @setrlimit64(i32 noundef 4, ptr noundef nonnull %3) #16
  br label %faulthandler_suppress_crash_report.exit

faulthandler_suppress_crash_report.exit:          ; preds = %2, %7
  %9 = ptrtoint ptr %4 to i64
  call void @llvm.lifetime.end.p0(i64 16, ptr nonnull %3) #16
  store i64 0, ptr %4, align 8, !tbaa !210
  %10 = icmp ugt ptr %4, inttoptr (i64 104857599 to ptr)
  %11 = add i64 %9, -104857600
  %.013 = select i1 %10, i64 %11, i64 0
  %12 = icmp ult ptr %4, inttoptr (i64 -104857600 to ptr)
  %13 = add nuw i64 %9, 104857600
  %.0 = select i1 %12, i64 %13, i64 -1
  %14 = call fastcc i64 @stack_overflow(i64 noundef %.013, i64 noundef %.0, ptr noundef %4)
  %15 = icmp ugt i64 %14, %9
  %16 = sub nuw i64 %14, %9
  %17 = sub nuw i64 %9, %14
  %.014 = select i1 %15, i64 %16, i64 %17
  %18 = load ptr, ptr @PyExc_RuntimeError, align 8, !tbaa !187
  %19 = load i64, ptr %4, align 8, !tbaa !210
  %20 = call ptr (ptr, ptr, ...) @PyErr_Format(ptr noundef %18, ptr noundef nonnull @.str.70, i64 noundef %.014, i64 noundef %19) #16
  call void @llvm.lifetime.end.p0(i64 8, ptr nonnull %4) #16
  ret ptr null
}